target datalayout = "e-m:e-p270:32:32-p271:32:32-p272:64:64-i64:64-f80:128-n8:16:32:64-S128"
target triple = "x86_64-pc-linux-gnu"

@.str = private unnamed_addr constant [5 x i8] c"%d%d\00", align 1
@.str.1 = private unnamed_addr constant [3 x i8] c"%d\00", align 1
@.str.2 = private unnamed_addr constant [4 x i8] c" %d\00", align 1

; Function Attrs: noinline nounwind uwtable
define dso_local i32 @main() #0 {
  %1 = alloca i32, align 4
  %2 = alloca [400 x i32], align 16
  %3 = alloca i32, align 4
  %4 = alloca i32, align 4
  %5 = alloca i32, align 4
  %6 = alloca i32, align 4
  store i32 0, i32* %1, align 4
  %7 = call i32 (i8*, ...) @__isoc99_scanf(i8* getelementptr inbounds ([5 x i8], [5 x i8]* @.str, i64 0, i64 0), i32* %4, i32* %5)
  store i32 0, i32* %6, align 4
  br label %8

8:                                                ; preds = %17, %0
  %9 = load i32, i32* %6, align 4
  %10 = load i32, i32* %4, align 4
  %11 = icmp slt i32 %9, %10
  br i1 %11, label %12, label %20

12:                                               ; preds = %8
  %13 = load i32, i32* %6, align 4
  %14 = sext i32 %13 to i64
  %15 = getelementptr inbounds [400 x i32], [400 x i32]* %2, i64 0, i64 %14
  %16 = call i32 (i8*, ...) @__isoc99_scanf(i8* getelementptr inbounds ([3 x i8], [3 x i8]* @.str.1, i64 0, i64 0), i32* %15)
  br label %17

17:                                               ; preds = %12
  %18 = load i32, i32* %6, align 4
  %19 = add nsw i32 %18, 1
  store i32 %19, i32* %6, align 4
  br label %8

20:                                               ; preds = %8
  store i32 0, i32* %3, align 4
  br label %21

21:                                               ; preds = %34, %20
  %22 = load i32, i32* %3, align 4
  %23 = load i32, i32* %4, align 4
  %24 = icmp slt i32 %22, %23
  br i1 %24, label %25, label %37

25:                                               ; preds = %21
  %26 = load i32, i32* %3, align 4
  %27 = sext i32 %26 to i64
  %28 = getelementptr inbounds [400 x i32], [400 x i32]* %2, i64 0, i64 %27
  %29 = load i32, i32* %28, align 4
  %30 = load i32, i32* %3, align 4
  %31 = add nsw i32 200, %30
  %32 = sext i32 %31 to i64
  %33 = getelementptr inbounds [400 x i32], [400 x i32]* %2, i64 0, i64 %32
  store i32 %29, i32* %33, align 4
  br label %34

34:                                               ; preds = %25
  %35 = load i32, i32* %3, align 4
  %36 = add nsw i32 %35, 1
  store i32 %36, i32* %3, align 4
  br label %21

37:                                               ; preds = %21
  store i32 0, i32* %6, align 4
  br label %38

38:                                               ; preds = %55, %37
  %39 = load i32, i32* %6, align 4
  %40 = load i32, i32* %5, align 4
  %41 = icmp slt i32 %39, %40
  br i1 %41, label %42, label %58

42:                                               ; preds = %38
  %43 = load i32, i32* %4, align 4
  %44 = add nsw i32 200, %43
  %45 = load i32, i32* %5, align 4
  %46 = sub nsw i32 %44, %45
  %47 = load i32, i32* %6, align 4
  %48 = add nsw i32 %46, %47
  %49 = sext i32 %48 to i64
  %50 = getelementptr inbounds [400 x i32], [400 x i32]* %2, i64 0, i64 %49
  %51 = load i32, i32* %50, align 4
  %52 = load i32, i32* %6, align 4
  %53 = sext i32 %52 to i64
  %54 = getelementptr inbounds [400 x i32], [400 x i32]* %2, i64 0, i64 %53
  store i32 %51, i32* %54, align 4
  br label %55

55:                                               ; preds = %42
  %56 = load i32, i32* %6, align 4
  %57 = add nsw i32 %56, 1
  store i32 %57, i32* %6, align 4
  br label %38

58:                                               ; preds = %38
  store i32 0, i32* %6, align 4
  br label %59

59:                                               ; preds = %76, %58
  %60 = load i32, i32* %6, align 4
  %61 = load i32, i32* %4, align 4
  %62 = load i32, i32* %5, align 4
  %63 = sub nsw i32 %61, %62
  %64 = icmp slt i32 %60, %63
  br i1 %64, label %65, label %79

65:                                               ; preds = %59
  %66 = load i32, i32* %6, align 4
  %67 = add nsw i32 200, %66
  %68 = sext i32 %67 to i64
  %69 = getelementptr inbounds [400 x i32], [400 x i32]* %2, i64 0, i64 %68
  %70 = load i32, i32* %69, align 4
  %71 = load i32, i32* %5, align 4
  %72 = load i32, i32* %6, align 4
  %73 = add nsw i32 %71, %72
  %74 = sext i32 %73 to i64
  %75 = getelementptr inbounds [400 x i32], [400 x i32]* %2, i64 0, i64 %74
  store i32 %70, i32* %75, align 4
  br label %76

76:                                               ; preds = %65
  %77 = load i32, i32* %6, align 4
  %78 = add nsw i32 %77, 1
  store i32 %78, i32* %6, align 4
  br label %59

79:                                               ; preds = %59
  %80 = getelementptr inbounds [400 x i32], [400 x i32]* %2, i64 0, i64 0
  %81 = load i32, i32* %80, align 16
  %82 = call i32 (i8*, ...) @printf(i8* getelementptr inbounds ([3 x i8], [3 x i8]* @.str.1, i64 0, i64 0), i32 %81)
  store i32 1, i32* %6, align 4
  br label %83

83:                                               ; preds = %93, %79
  %84 = load i32, i32* %6, align 4
  %85 = load i32, i32* %4, align 4
  %86 = icmp slt i32 %84, %85
  br i1 %86, label %87, label %96

87:                                               ; preds = %83
  %88 = load i32, i32* %6, align 4
  %89 = sext i32 %88 to i64
  %90 = getelementptr inbounds [400 x i32], [400 x i32]* %2, i64 0, i64 %89
  %91 = load i32, i32* %90, align 4
  %92 = call i32 (i8*, ...) @printf(i8* getelementptr inbounds ([4 x i8], [4 x i8]* @.str.2, i64 0, i64 0), i32 %91)
  br label %93

93:                                               ; preds = %87
  %94 = load i32, i32* %6, align 4
  %95 = add nsw i32 %94, 1
  store i32 %95, i32* %6, align 4
  br label %83

96:                                               ; preds = %83
  ret i32 0
}